Certificate:
    Data:
        Version: 3 (0x2)
        Serial Number: 0 (0x0)
        Signature Algorithm: sha1WithRSAEncryption
        Issuer: C=US, ST=California, O=Snaplogic, Inc., OU=Eng, CN=adm1.rsc.snaplogic.com/emailAddress=ops@snaplogic.com
        Validity
            Not Before: Mar 22 23:37:30 2011 GMT
            Not After : Mar 21 23:37:30 2014 GMT
        Subject: C=US, ST=California, O=Snaplogic, Inc., OU=Eng, CN=adm1.rsc.snaplogic.com/emailAddress=ops@snaplogic.com
        Subject Public Key Info:
            Public Key Algorithm: rsaEncryption
            RSA Public Key: (1024 bit)
                Modulus (1024 bit):
                    00:da:91:36:cb:be:f6:61:57:38:b5:fb:c8:46:a9:
                    76:2e:1a:a3:da:ed:b0:d0:45:c6:c8:4b:0d:33:56:
                    2e:41:b3:f5:20:de:90:27:45:32:5c:cc:cb:1f:66:
                    59:64:3e:55:d8:59:24:71:fd:4f:cd:59:d0:0d:b8:
                    92:f4:56:0e:c8:ad:b3:0c:86:56:08:02:23:7a:02:
                    01:06:3b:c8:16:89:2b:4d:ce:fc:36:71:13:d6:03:
                    56:89:97:ed:f9:58:ea:98:6f:5b:5e:b9:ad:78:fc:
                    88:4a:d8:82:06:4d:82:d7:50:d8:93:ed:34:ec:10:
                    40:c9:f5:e6:4c:62:42:cf:89
                Exponent: 65537 (0x10001)
        X509v3 extensions:
            X509v3 Basic Constraints:
                CA:TRUE
            Netscape Comment:
                OpenSSL Generated Certificate
            X509v3 Subject Key Identifier:
                98:F9:40:D5:01:0B:11:51:DD:46:D5:C2:25:E9:8F:14:B4:0F:AB:A0
            X509v3 Authority Key Identifier:
                keyid:98:F9:40:D5:01:0B:11:51:DD:46:D5:C2:25:E9:8F:14:B4:0F:AB:A0

    Signature Algorithm: sha1WithRSAEncryption
        d8:d0:d6:08:ae:90:e4:1e:b8:bf:62:ce:91:6f:be:27:3a:d3:
        a2:e8:51:f2:31:68:b9:1f:49:b6:61:6f:d0:a4:5d:a8:26:03:
        4a:32:bd:73:9a:8e:ff:ad:fb:15:22:3b:b3:ae:f9:61:c8:43:
        ac:ce:29:54:a7:3f:21:47:bd:b4:ef:f9:d8:cb:5c:cc:5b:ec:
        1e:b6:b2:32:f8:75:16:68:3d:21:cb:62:13:b7:1f:f2:1c:da:
        59:20:37:7d:86:ac:84:2e:5c:3c:3f:46:03:b6:9d:6a:a5:cb:
        12:3f:98:73:e3:99:51:33:51:7f:1d:dd:1a:0f:47:b8:79:0f:
        9e:c1
-----BEGIN CERTIFICATE-----
MIIDEDCCAnmgAwIBAgIBADANBgkqhkiG9w0BAQUFADCBjTELMAkGA1UEBhMCVVMx
EzARBgNVBAgTCkNhbGlmb3JuaWExGDAWBgNVBAoTD1NuYXBsb2dpYywgSW5jLjEM
MAoGA1UECxMDRW5nMR8wHQYDVQQDExZhZG0xLnJzYy5zbmFwbG9naWMuY29tMSAw
HgYJKoZIhvcNAQkBFhFvcHNAc25hcGxvZ2ljLmNvbTAeFw0xMTAzMjIyMzM3MzBa
Fw0xNDAzMjEyMzM3MzBaMIGNMQswCQYDVQQGEwJVUzETMBEGA1UECBMKQ2FsaWZv
cm5pYTEYMBYGA1UEChMPU25hcGxvZ2ljLCBJbmMuMQwwCgYDVQQLEwNFbmcxHzAd
BgNVBAMTFmFkbTEucnNjLnNuYXBsb2dpYy5jb20xIDAeBgkqhkiG9w0BCQEWEW9w
c0BzbmFwbG9naWMuY29tMIGfMA0GCSqGSIb3DQEBAQUAA4GNADCBiQKBgQDakTbL
vvZhVzi1+8hGqXYuGqPa7bDQRcbISw0zVi5Bs/Ug3pAnRTJczMsfZllkPlXYWSRx
/U/NWdANuJL0Vg7IrbMMhlYIAiN6AgEGO8gWiStNzvw2cRPWA1aJl+35WOqYb1te
ua14/IhK2IIGTYLXUNiT7TTsEEDJ9eZMYkLPiQIDAQABo34wfDAMBgNVHRMEBTAD
AQH/MCwGCWCGSAGG+EIBDQQfFh1PcGVuU1NMIEdlbmVyYXRlZCBDZXJ0aWZpY2F0
ZTAdBgNVHQ4EFgQUmPlA1QELEVHdRtXCJemPFLQPq6AwHwYDVR0jBBgwFoAUmPlA
1QELEVHdRtXCJemPFLQPq6AwDQYJKoZIhvcNAQEFBQADgYEA2NDWCK6Q5B64v2LO
kW++JzrTouhR8jFouR9JtmFv0KRdqCYDSjK9c5qO/637FSI7s675YchDrM4pVKc/
IUe9tO/52MtczFvsHrayMvh1Fmg9IctiE7cf8hzaWSA3fYashC5cPD9GA7adaqXL
Ej+Yc+OZUTNRfx3dGg9HuHkPnsE=
-----END CERTIFICATE-----

